c__main__
ColorSpaceTransformer
p1
.c__main__
HogDescriptor
p1
.c__main__
createHogPipeline
p1
.ccopy_reg
_reconstructor
p1
(csklearn.pipeline
Pipeline
p2
c__builtin__
object
p3
NtRp4
(dp5
S'_sklearn_version'
p6
S'0.19.0'
p7
sS'steps'
p8
(lp9
(S'l_trans'
p10
g1
(c__main__
LabelTransform
p11
g3
NtRp12
(dp13
S'mode'
p14
S'ova'
p15
sbtp16
a(S'encoder'
p17
g1
(c__main__
labelencoder
p18
g3
NtRp19
tp20
asS'memory'
p21
Nsb.