ccopy_reg
_reconstructor
p1
(csklearn.pipeline
Pipeline
p2
c__builtin__
object
p3
NtRp4
(dp5
S'_sklearn_version'
p6
S'0.19.0'
p7
sS'steps'
p8
(lp9
(S'l_trans'
p10
g1
(c__main__
LabelTransform
p11
g3
NtRp12
(dp13
S'mode'
p14
S'ovo'
p15
sbtp16
a(S'encoder'
p17
g1
(c__main__
labelencoder
p18
g3
NtRp19
(dp20
g17
g1
(csklearn.preprocessing.label
LabelEncoder
p21
g3
NtRp22
(dp23
S'classes_'
p24
cnumpy.core.multiarray
_reconstruct
p25
(cnumpy
ndarray
p26
(I0
tS'b'
tRp27
(I1
(I9
tcnumpy
dtype
p28
(S'S8'
I0
I1
tRp29
(I3
S'|'
NNNI8
I1
I0
tbI00
S'black\x00\x00\x00blue\x00\x00\x00\x00brown\x00\x00\x00cue_ballfalse\x00\x00\x00green\x00\x00\x00pink\x00\x00\x00\x00red\x00\x00\x00\x00\x00yellow\x00\x00'
tbsg6
g7
sbsbtp30
asS'memory'
p31
Nsb.